ccopy_reg
_reconstructor
p1
(csklearn.linear_model.base
LinearRegression
p2
c__builtin__
object
p3
NtRp4
(dp5
S'normalize'
p6
I00
sS'n_jobs'
p7
I-1
sS'rank_'
p8
I5
sS'fit_intercept'
p9
I01
sS'_residues'
p10
cnumpy.core.multiarray
scalar
p11
(cnumpy
dtype
p12
(S'f8'
I0
I1
tRp13
(I3
S'<'
NNNI-1
I-1
I0
tbS'\xae\xe2\xd9\xbb\x87\x02H@'
tRp14
sS'coef_'
p15
cnumpy.core.multiarray
_reconstruct
p16
(cnumpy
ndarray
p17
(I0
tS'b'
tRp18
(I1
(L5L
tg13
I00
S'?\x92\x88[\x9dn\xf2?@\xe6N\x16\xa5c\xa2\xbfb\x92\xde\xabF\x8b\xf9?rHx\xa7)\x00\x19\xc0\xafr\xba=\x0f}\xf7?'
tbsS'copy_X'
p19
I01
sS'intercept_'
p20
g11
(g13
S'\xf9,\x90c\x12t>\xc0'
tRp21
sS'singular_'
p22
g16
(g17
(I0
tS'b'
tRp23
(I1
(L5L
tg13
I00
S'\x84\xe5\xb17\xa2kD@@+62`]4@\x1a;I\n\x93\x98#@\x9al\x96\x13\x13\x00\x18@\xf8-B\xda\xfc\xe6\xe9?'
tbsb.