ccopy_reg
_reconstructor
p1
(csklearn.linear_model.base
LinearRegression
p2
c__builtin__
object
p3
NtRp4
(dp5
S'normalize'
p6
I00
sS'n_jobs'
p7
I-1
sS'rank_'
p8
I5
sS'fit_intercept'
p9
I01
sS'_residues'
p10
cnumpy.core.multiarray
scalar
p11
(cnumpy
dtype
p12
(S'f8'
I0
I1
tRp13
(I3
S'<'
NNNI-1
I-1
I0
tbS'\x0eB9[\x04k\xc9@'
tRp14
sS'coef_'
p15
cnumpy.core.multiarray
_reconstruct
p16
(cnumpy
ndarray
p17
(I0
tS'b'
tRp18
(I1
(L5L
tg13
I00
S'(2\x87+\xc9\xdc<@P\xe9\x9bR`\xdd\x94?\xdb\xce/\xd9\x0c\x95\xbd\xbf\xac\xc7zu\x8a\x02$\xc08\x91"QC\x1e\xda\xbf'
tbsS'copy_X'
p19
I01
sS'intercept_'
p20
g11
(g13
S'\xb8T\x85\x81\xe3\xae\x18@'
tRp21
sS'singular_'
p22
g16
(g17
(I0
tS'b'
tRp23
(I1
(L5L
tg13
I00
S'o\x03>o+qD@(\xe4\xc8\x7fi\\4@\\+h\x16\x8e\x98#@<\xb7{=\x01\x00\x18@\x187j\x85j\x8a\xe9?'
tbsb.