ccopy_reg
_reconstructor
p1
(csklearn.linear_model.base
LinearRegression
p2
c__builtin__
object
p3
NtRp4
(dp5
S'normalize'
p6
I00
sS'n_jobs'
p7
I-1
sS'rank_'
p8
I5
sS'fit_intercept'
p9
I01
sS'_residues'
p10
cnumpy.core.multiarray
scalar
p11
(cnumpy
dtype
p12
(S'f8'
I0
I1
tRp13
(I3
S'<'
NNNI-1
I-1
I0
tbS"*'#\xf0#\xd42@"
tRp14
sS'coef_'
p15
cnumpy.core.multiarray
_reconstruct
p16
(cnumpy
ndarray
p17
(I0
tS'b'
tRp18
(I1
(L5L
tg13
I00
S'\xebH3\x11;\xd7\x00@ \x1aW\xf3\xb2{\x81?\n\x0f}\xf1\x8fb\x00@\x1d\xec\x0b\xc5p\xe5\xf9\xbf)\xbb1\x98\x81o\xc2\xbf'
tbsS'copy_X'
p19
I01
sS'intercept_'
p20
g11
(g13
S'\xe0/+,sxF\xc0'
tRp21
sS'singular_'
p22
g16
(g17
(I0
tS'b'
tRp23
(I1
(L5L
tg13
I00
S'fnlU\xb3uD@%\x9a\xdd\xb0\x86\\4@T#R\\\x8e\x98#@\xc0\xd83\xe9\x05\x00\x18@\x95\x90\t\x8f\xdd\x19\xea?'
tbsb.