ccopy_reg
_reconstructor
p1
(csklearn.linear_model.base
LinearRegression
p2
c__builtin__
object
p3
NtRp4
(dp5
S'normalize'
p6
I00
sS'n_jobs'
p7
I-1
sS'rank_'
p8
I5
sS'fit_intercept'
p9
I01
sS'_residues'
p10
cnumpy.core.multiarray
scalar
p11
(cnumpy
dtype
p12
(S'f8'
I0
I1
tRp13
(I3
S'<'
NNNI-1
I-1
I0
tbS'T\x90\xe3n1#\xdc@'
tRp14
sS'coef_'
p15
cnumpy.core.multiarray
_reconstruct
p16
(cnumpy
ndarray
p17
(I0
tS'b'
tRp18
(I1
(L5L
tg13
I00
S'^\x85w7^d\xa5\xbfLf-\x13\xda0\x99?63$\xfb\xb1\x98\xaa?\xb3c\xfc\xd6)\x07@\xc0\x11\xfdMz\xd2\x96\xc1?'
tbsS'copy_X'
p19
I01
sS'intercept_'
p20
g11
(g13
S'}\x17\x84\x80\x97{\\@'
tRp21
sS'singular_'
p22
g16
(g17
(I0
tS'b'
tRp23
(I1
(L5L
tg13
I00
S'\xbd\xbb4h\x99pD@\xaf\xea\xb1J\xe5\\4@t\x08`A\x8e\x98#@\x95#\xe0\x03\x00\x00\x18@\xe9\xa1\xcd\x84\xfc\xf5\xe9?'
tbsb.